target datalayout = "e-m:e-p270:32:32-p271:32:32-p272:64:64-i64:64-i128:128-f80:128-n8:16:32:64-S128"
target triple = "x86_64-pc-linux-gnu"

%"class.std::ios_base::Init" = type { i8 }
%"class.cv::Size_" = type { i32, i32 }

$_ZN2cv5Size_IiEC2Eii = comdat any

@_ZStL8__ioinit = internal global %"class.std::ios_base::Init" zeroinitializer, align 1
@__dso_handle = external hidden global i8
@_ZN4perfL6szQVGAE = internal global %"class.cv::Size_" zeroinitializer, align 4
@_ZN4perfL5szVGAE = internal global %"class.cv::Size_" zeroinitializer, align 4
@_ZN4perfL6szSVGAE = internal global %"class.cv::Size_" zeroinitializer, align 4
@_ZN4perfL5szXGAE = internal global %"class.cv::Size_" zeroinitializer, align 4
@_ZN4perfL6szSXGAE = internal global %"class.cv::Size_" zeroinitializer, align 4
@_ZN4perfL6szWQHDE = internal global %"class.cv::Size_" zeroinitializer, align 4
@_ZN4perfL5sznHDE = internal global %"class.cv::Size_" zeroinitializer, align 4
@_ZN4perfL5szqHDE = internal global %"class.cv::Size_" zeroinitializer, align 4
@_ZN4perfL6sz720pE = internal global %"class.cv::Size_" zeroinitializer, align 4
@_ZN4perfL7sz1080pE = internal global %"class.cv::Size_" zeroinitializer, align 4
@_ZN4perfL7sz2160pE = internal global %"class.cv::Size_" zeroinitializer, align 4
@_ZN4perfL7sz4320pE = internal global %"class.cv::Size_" zeroinitializer, align 4
@_ZN4perfL5sz3MPE = internal global %"class.cv::Size_" zeroinitializer, align 4
@_ZN4perfL5sz5MPE = internal global %"class.cv::Size_" zeroinitializer, align 4
@_ZN4perfL4sz2KE = internal global %"class.cv::Size_" zeroinitializer, align 4
@_ZN4perfL5szODDE = internal global %"class.cv::Size_" zeroinitializer, align 4
@_ZN4perfL9szSmall24E = internal global %"class.cv::Size_" zeroinitializer, align 4
@_ZN4perfL9szSmall32E = internal global %"class.cv::Size_" zeroinitializer, align 4
@_ZN4perfL9szSmall64E = internal global %"class.cv::Size_" zeroinitializer, align 4
@_ZN4perfL10szSmall128E = internal global %"class.cv::Size_" zeroinitializer, align 4
@llvm.global_ctors = appending global [1 x { i32, ptr, ptr }] [{ i32, ptr, ptr } { i32 65535, ptr @_GLOBAL__sub_I_perf_surf.cpp, ptr null }]

; Function Attrs: uwtable
define internal void @__cxx_global_var_init() #0 section ".text.startup" {
  call void @_ZNSt8ios_base4InitC1Ev(ptr noundef nonnull align 1 dereferenceable(1) @_ZStL8__ioinit)
  %1 = call i32 @__cxa_atexit(ptr @_ZNSt8ios_base4InitD1Ev, ptr @_ZStL8__ioinit, ptr @__dso_handle) #3
  ret void
}

declare void @_ZNSt8ios_base4InitC1Ev(ptr noundef nonnull align 1 dereferenceable(1)) unnamed_addr #1

; Function Attrs: nounwind
declare void @_ZNSt8ios_base4InitD1Ev(ptr noundef nonnull align 1 dereferenceable(1)) unnamed_addr #2

; Function Attrs: nounwind
declare i32 @__cxa_atexit(ptr, ptr, ptr) #3

; Function Attrs: uwtable
define internal void @__cxx_global_var_init.1() #0 section ".text.startup" {
  call void @_ZN2cv5Size_IiEC2Eii(ptr noundef nonnull align 4 dereferenceable(8) @_ZN4perfL6szQVGAE, i32 noundef 320, i32 noundef 240)
  %1 = call ptr @llvm.invariant.start.p0(i64 8, ptr @_ZN4perfL6szQVGAE)
  ret void
}

; Function Attrs: inlinehint mustprogress nounwind uwtable
define linkonce_odr hidden void @_ZN2cv5Size_IiEC2Eii(ptr noundef nonnull align 4 dereferenceable(8) %0, i32 noundef %1, i32 noundef %2) unnamed_addr #4 comdat align 2 {
  %4 = alloca ptr, align 8
  %5 = alloca i32, align 4
  %6 = alloca i32, align 4
  store ptr %0, ptr %4, align 8, !tbaa !4
  store i32 %1, ptr %5, align 4, !tbaa !9
  store i32 %2, ptr %6, align 4, !tbaa !9
  %7 = load ptr, ptr %4, align 8
  %8 = getelementptr inbounds nuw %"class.cv::Size_", ptr %7, i32 0, i32 0
  %9 = load i32, ptr %5, align 4, !tbaa !9
  store i32 %9, ptr %8, align 4, !tbaa !11
  %10 = getelementptr inbounds nuw %"class.cv::Size_", ptr %7, i32 0, i32 1
  %11 = load i32, ptr %6, align 4, !tbaa !9
  store i32 %11, ptr %10, align 4, !tbaa !13
  ret void
}

; Function Attrs: nocallback nofree nosync nounwind willreturn memory(argmem: readwrite)
declare ptr @llvm.invariant.start.p0(i64 immarg, ptr captures(none)) #5

; Function Attrs: uwtable
define internal void @__cxx_global_var_init.2() #0 section ".text.startup" {
  call void @_ZN2cv5Size_IiEC2Eii(ptr noundef nonnull align 4 dereferenceable(8) @_ZN4perfL5szVGAE, i32 noundef 640, i32 noundef 480)
  %1 = call ptr @llvm.invariant.start.p0(i64 8, ptr @_ZN4perfL5szVGAE)
  ret void
}

; Function Attrs: uwtable
define internal void @__cxx_global_var_init.3() #0 section ".text.startup" {
  call void @_ZN2cv5Size_IiEC2Eii(ptr noundef nonnull align 4 dereferenceable(8) @_ZN4perfL6szSVGAE, i32 noundef 800, i32 noundef 600)
  %1 = call ptr @llvm.invariant.start.p0(i64 8, ptr @_ZN4perfL6szSVGAE)
  ret void
}

; Function Attrs: uwtable
define internal void @__cxx_global_var_init.4() #0 section ".text.startup" {
  call void @_ZN2cv5Size_IiEC2Eii(ptr noundef nonnull align 4 dereferenceable(8) @_ZN4perfL5szXGAE, i32 noundef 1024, i32 noundef 768)
  %1 = call ptr @llvm.invariant.start.p0(i64 8, ptr @_ZN4perfL5szXGAE)
  ret void
}

; Function Attrs: uwtable
define internal void @__cxx_global_var_init.5() #0 section ".text.startup" {
  call void @_ZN2cv5Size_IiEC2Eii(ptr noundef nonnull align 4 dereferenceable(8) @_ZN4perfL6szSXGAE, i32 noundef 1280, i32 noundef 1024)
  %1 = call ptr @llvm.invariant.start.p0(i64 8, ptr @_ZN4perfL6szSXGAE)
  ret void
}

; Function Attrs: uwtable
define internal void @__cxx_global_var_init.6() #0 section ".text.startup" {
  call void @_ZN2cv5Size_IiEC2Eii(ptr noundef nonnull align 4 dereferenceable(8) @_ZN4perfL6szWQHDE, i32 noundef 2560, i32 noundef 1440)
  %1 = call ptr @llvm.invariant.start.p0(i64 8, ptr @_ZN4perfL6szWQHDE)
  ret void
}

; Function Attrs: uwtable
define internal void @__cxx_global_var_init.7() #0 section ".text.startup" {
  call void @_ZN2cv5Size_IiEC2Eii(ptr noundef nonnull align 4 dereferenceable(8) @_ZN4perfL5sznHDE, i32 noundef 640, i32 noundef 360)
  %1 = call ptr @llvm.invariant.start.p0(i64 8, ptr @_ZN4perfL5sznHDE)
  ret void
}

; Function Attrs: uwtable
define internal void @__cxx_global_var_init.8() #0 section ".text.startup" {
  call void @_ZN2cv5Size_IiEC2Eii(ptr noundef nonnull align 4 dereferenceable(8) @_ZN4perfL5szqHDE, i32 noundef 960, i32 noundef 540)
  %1 = call ptr @llvm.invariant.start.p0(i64 8, ptr @_ZN4perfL5szqHDE)
  ret void
}

; Function Attrs: uwtable
define internal void @__cxx_global_var_init.9() #0 section ".text.startup" {
  call void @_ZN2cv5Size_IiEC2Eii(ptr noundef nonnull align 4 dereferenceable(8) @_ZN4perfL6sz720pE, i32 noundef 1280, i32 noundef 720)
  %1 = call ptr @llvm.invariant.start.p0(i64 8, ptr @_ZN4perfL6sz720pE)
  ret void
}

; Function Attrs: uwtable
define internal void @__cxx_global_var_init.10() #0 section ".text.startup" {
  call void @_ZN2cv5Size_IiEC2Eii(ptr noundef nonnull align 4 dereferenceable(8) @_ZN4perfL7sz1080pE, i32 noundef 1920, i32 noundef 1080)
  %1 = call ptr @llvm.invariant.start.p0(i64 8, ptr @_ZN4perfL7sz1080pE)
  ret void
}

; Function Attrs: uwtable
define internal void @__cxx_global_var_init.11() #0 section ".text.startup" {
  call void @_ZN2cv5Size_IiEC2Eii(ptr noundef nonnull align 4 dereferenceable(8) @_ZN4perfL7sz2160pE, i32 noundef 3840, i32 noundef 2160)
  %1 = call ptr @llvm.invariant.start.p0(i64 8, ptr @_ZN4perfL7sz2160pE)
  ret void
}

; Function Attrs: uwtable
define internal void @__cxx_global_var_init.12() #0 section ".text.startup" {
  call void @_ZN2cv5Size_IiEC2Eii(ptr noundef nonnull align 4 dereferenceable(8) @_ZN4perfL7sz4320pE, i32 noundef 7680, i32 noundef 4320)
  %1 = call ptr @llvm.invariant.start.p0(i64 8, ptr @_ZN4perfL7sz4320pE)
  ret void
}

; Function Attrs: uwtable
define internal void @__cxx_global_var_init.13() #0 section ".text.startup" {
  call void @_ZN2cv5Size_IiEC2Eii(ptr noundef nonnull align 4 dereferenceable(8) @_ZN4perfL5sz3MPE, i32 noundef 2048, i32 noundef 1536)
  %1 = call ptr @llvm.invariant.start.p0(i64 8, ptr @_ZN4perfL5sz3MPE)
  ret void
}

; Function Attrs: uwtable
define internal void @__cxx_global_var_init.14() #0 section ".text.startup" {
  call void @_ZN2cv5Size_IiEC2Eii(ptr noundef nonnull align 4 dereferenceable(8) @_ZN4perfL5sz5MPE, i32 noundef 2592, i32 noundef 1944)
  %1 = call ptr @llvm.invariant.start.p0(i64 8, ptr @_ZN4perfL5sz5MPE)
  ret void
}

; Function Attrs: uwtable
define internal void @__cxx_global_var_init.15() #0 section ".text.startup" {
  call void @_ZN2cv5Size_IiEC2Eii(ptr noundef nonnull align 4 dereferenceable(8) @_ZN4perfL4sz2KE, i32 noundef 2048, i32 noundef 2048)
  %1 = call ptr @llvm.invariant.start.p0(i64 8, ptr @_ZN4perfL4sz2KE)
  ret void
}

; Function Attrs: uwtable
define internal void @__cxx_global_var_init.16() #0 section ".text.startup" {
  call void @_ZN2cv5Size_IiEC2Eii(ptr noundef nonnull align 4 dereferenceable(8) @_ZN4perfL5szODDE, i32 noundef 127, i32 noundef 61)
  %1 = call ptr @llvm.invariant.start.p0(i64 8, ptr @_ZN4perfL5szODDE)
  ret void
}

; Function Attrs: uwtable
define internal void @__cxx_global_var_init.17() #0 section ".text.startup" {
  call void @_ZN2cv5Size_IiEC2Eii(ptr noundef nonnull align 4 dereferenceable(8) @_ZN4perfL9szSmall24E, i32 noundef 24, i32 noundef 24)
  %1 = call ptr @llvm.invariant.start.p0(i64 8, ptr @_ZN4perfL9szSmall24E)
  ret void
}

; Function Attrs: uwtable
define internal void @__cxx_global_var_init.18() #0 section ".text.startup" {
  call void @_ZN2cv5Size_IiEC2Eii(ptr noundef nonnull align 4 dereferenceable(8) @_ZN4perfL9szSmall32E, i32 noundef 32, i32 noundef 32)
  %1 = call ptr @llvm.invariant.start.p0(i64 8, ptr @_ZN4perfL9szSmall32E)
  ret void
}

; Function Attrs: uwtable
define internal void @__cxx_global_var_init.19() #0 section ".text.startup" {
  call void @_ZN2cv5Size_IiEC2Eii(ptr noundef nonnull align 4 dereferenceable(8) @_ZN4perfL9szSmall64E, i32 noundef 64, i32 noundef 64)
  %1 = call ptr @llvm.invariant.start.p0(i64 8, ptr @_ZN4perfL9szSmall64E)
  ret void
}

; Function Attrs: uwtable
define internal void @__cxx_global_var_init.20() #0 section ".text.startup" {
  call void @_ZN2cv5Size_IiEC2Eii(ptr noundef nonnull align 4 dereferenceable(8) @_ZN4perfL10szSmall128E, i32 noundef 128, i32 noundef 128)
  %1 = call ptr @llvm.invariant.start.p0(i64 8, ptr @_ZN4perfL10szSmall128E)
  ret void
}

; Function Attrs: uwtable
define internal void @_GLOBAL__sub_I_perf_surf.cpp() #0 section ".text.startup" {
  call void @__cxx_global_var_init()
  call void @__cxx_global_var_init.1()
  call void @__cxx_global_var_init.2()
  call void @__cxx_global_var_init.3()
  call void @__cxx_global_var_init.4()
  call void @__cxx_global_var_init.5()
  call void @__cxx_global_var_init.6()
  call void @__cxx_global_var_init.7()
  call void @__cxx_global_var_init.8()
  call void @__cxx_global_var_init.9()
  call void @__cxx_global_var_init.10()
  call void @__cxx_global_var_init.11()
  call void @__cxx_global_var_init.12()
  call void @__cxx_global_var_init.13()
  call void @__cxx_global_var_init.14()
  call void @__cxx_global_var_init.15()
  call void @__cxx_global_var_init.16()
  call void @__cxx_global_var_init.17()
  call void @__cxx_global_var_init.18()
  call void @__cxx_global_var_init.19()
  call void @__cxx_global_var_init.20()
  ret void
}


!llvm.module.flags = !{!0, !1, !2, !3}

!0 = !{i32 1, !"wchar_size", i32 4}
!1 = !{i32 8, !"PIC Level", i32 2}
!2 = !{i32 7, !"PIE Level", i32 2}
!3 = !{i32 7, !"uwtable", i32 2}
!4 = !{!5, !5, i64 0}
!5 = !{!"p1 _ZTSN2cv5Size_IiEE", !6, i64 0}
!6 = !{!"any pointer", !7, i64 0}
!7 = !{!"omnipotent char", !8, i64 0}
!8 = !{!"Simple C++ TBAA"}
!9 = !{!10, !10, i64 0}
!10 = !{!"int", !7, i64 0}
!11 = !{!12, !10, i64 0}
!12 = !{!"_ZTSN2cv5Size_IiEE", !10, i64 0, !10, i64 4}
!13 = !{!12, !10, i64 4}
